(dp0
S'METTS MARK'
p1
(dp2
S'salary'
p3
F12.80980920958944
sS'shared_receipt_with_poi'
p4
F6.553933404025811
sS'deferral_payments'
p5
F0.0
sS'total_payments'
p6
F13.87550156732602
sS'long_term_incentive'
p7
F0.0
sS'to_messages'
p8
F6.693323668269949
sS'bonus'
p9
F13.304684934198283
sS'total_stock_value'
p10
F13.279473103504184
sS'expenses'
p11
F11.45422586411145
sS'from_poi_to_this_person'
p12
F3.6375861597263857
sS'exercised_stock_options'
p13
F0.0
sS'from_messages'
p14
F3.367295829986474
sS'other'
p15
F7.461640392208575
sS'from_this_person_to_poi'
p16
F0.0
sS'to_poi_ratio'
p17
F-6.693323668269949
sS'poi'
p18
I00
sS'deferred_income'
p19
F0.0
sS'from_poi_ratio'
p20
F0.2702903297399117
sS'restricted_stock'
p21
F13.279473103504184
sS'director_fees'
p22
F0.0
ssS'BAXTER JOHN C'
p23
(dp24
g3
F12.495385886902291
sg4
F0.0
sg5
F14.074590974963343
sg6
F15.544391105934508
sg7
F14.276760359011964
sg8
F0.0
sg9
F13.997832114758229
sg10
F16.178556306391826
sg11
F9.323669057283185
sg12
F0.0
sg13
F15.714709979322754
sg14
F0.0
sg15
F14.793950584045092
sg16
F0.0
sg17
F0.0
sg18
I00
sg19
F14.141972140484336
sg20
F0.0
sg21
F15.18737987662522
sg22
F0.0
ssS'ELLIOTT STEVEN'
p25
(dp26
g3
F12.049073746708748
sg4
F0.0
sg5
F0.0
sg6
F12.2630435417898
sg7
F0.0
sg8
F0.0
sg9
F12.765688433465597
sg10
F15.714439156322342
sg11
F11.271516104849127
sg12
F0.0
sg13
F15.402773206625037
sg14
F0.0
sg15
F9.469700127423375
sg16
F0.0
sg17
F0.0
sg18
I00
sg19
F12.901040667352055
sg20
F0.0
sg21
F14.396826890898076
sg22
F0.0
ssS'CORDES WILLIAM R'
p27
(dp28
g3
F0.0
sg4
F4.060443010546419
sg5
F0.0
sg6
F0.0
sg7
F0.0
sg8
F6.638567789166521
sg9
F0.0
sg10
F13.852984554187671
sg11
F0.0
sg12
F2.302585092994046
sg13
F13.387569753090926
sg14
F2.4849066497880004
sg15
F0.0
sg16
F0.0
sg17
F0.0
sg18
I00
sg19
F0.0
sg20
F-0.1823215567939546
sg21
F12.864460147708321
sg22
F0.0
ssS'HANNON KEVIN P'
p29
(dp30
g3
F12.40202175729319
sg4
F6.942156705699469
sg5
F0.0
sg6
F12.573081015248674
sg7
F14.296089941257193
sg8
F6.951772164398911
sg9
F14.22097566607244
sg10
F15.670411479133039
sg11
F10.435262205052501
sg12
F3.4657359027997265
sg13
F15.527144163283632
sg14
F3.4657359027997265
sg15
F9.336973022909548
sg16
F3.044522437723423
sg17
F-3.9072497266754884
sg18
I01
sg19
F14.952385087777575
sg20
F0.0
sg21
F13.656589852967581
sg22
F0.0
ssS'MORDAUNT KRISTINA M'
p31
(dp32
g3
F12.495352191341677
sg4
F0.0
sg5
F0.0
sg6
F13.35112631037754
sg7
F0.0
sg8
F0.0
sg9
F12.691580461311874
sg10
F12.247742280701566
sg11
F10.463617493986263
sg12
F0.0
sg13
F0.0
sg14
F0.0
sg15
F7.252053951852814
sg16
F0.0
sg17
F0.0
sg18
I00
sg19
F0.0
sg20
F0.0
sg21
F12.247742280701566
sg22
F0.0
ssS'MEYER ROCKFORD G'
p33
(dp34
g3
F0.0
sg4
F3.091042453358316
sg5
F14.42973735913794
sg6
F14.42973735913794
sg7
F0.0
sg8
F5.44673737166631
sg9
F0.0
sg10
F13.77038033802055
sg11
F0.0
sg12
F0.0
sg13
F13.109255847840283
sg14
F3.332204510175204
sg15
F0.0
sg16
F0.0
sg17
F0.0
sg18
I00
sg19
F0.0
sg20
F0.0
sg21
F13.044150993665514
sg22
F0.0
ssS'MCMAHON JEFFREY'
p35
(dp36
g3
F12.82246836299098
sg4
F7.708859601047175
sg5
F0.0
sg6
F15.226441676456126
sg7
F13.451468543679974
sg8
F7.764296006450518
sg9
F14.77102200299171
sg10
F14.324046562551628
sg11
F11.828524215416218
sg12
F4.060443010546419
sg13
F13.914499417666452
sg14
F3.871201010907891
sg15
F12.602675264204409
sg16
F3.258096538021482
sg17
F-4.5061994684290365
sg18
I00
sg19
F0.0
sg20
F0.18924199963852834
sg21
F13.233548695912376
sg22
F0.0
ssS'HORTON STANLEY C'
p37
(dp38
g3
F0.0
sg4
F6.97914527506881
sg5
F14.957137635221475
sg6
F14.957137635221475
sg7
F0.0
sg8
F7.762170607138205
sg9
F0.0
sg10
F15.797428572192045
sg11
F0.0
sg12
F3.784189633918261
sg13
F15.466199620818061
sg14
F6.9782137426306985
sg15
F0.0
sg16
F2.70805020110221
sg17
F-5.054120406035994
sg18
I00
sg19
F0.0
sg20
F-3.194024108712437
sg21
F14.531435836673996
sg22
F0.0
ssS'PIPER GREGORY F'
p39
(dp40
g3
F12.19142082999781
sg4
F6.60934924316738
sg5
F13.937760048588135
sg6
F14.368032098269406
sg7
F0.0
sg8
F7.121252453244542
sg9
F12.89921982609012
sg10
F13.688006677620757
sg11
F10.670280098263682
sg12
F4.110873864173311
sg13
F13.688006677620757
sg14
F5.402677381872279
sg15
F6.656726524178391
sg16
F3.871201010907891
sg17
F-3.2500514423366504
sg18
I00
sg19
F10.414303176252119
sg20
F-1.2918035176989682
sg21
F12.922824041713291
sg22
F0.0
ssS'HUMPHREY GENE E'
p41
(dp42
g3
F11.780843509380869
sg4
F4.77912349311153
sg5
F14.902220966077588
sg6
F14.946984924909403
sg7
F0.0
sg8
F4.852030263919617
sg9
F0.0
sg10
F14.64089929967365
sg11
F8.515992470839718
sg12
F2.302585092994046
sg13
F14.64089929967365
sg14
F2.833213344056216
sg15
F0.0
sg16
F2.833213344056216
sg17
F-2.018816919863401
sg18
I00
sg19
F0.0
sg20
F-0.5306282510621704
sg21
F0.0
sg22
F0.0
ssS'UMANOFF ADAM S'
p43
(dp44
g3
F12.572758809557396
sg4
F3.713572066704308
sg5
F0.0
sg6
F13.93813607209536
sg7
F0.0
sg8
F4.709530201312334
sg9
F13.57820469283756
sg10
F0.0
sg11
F10.88034643404396
sg12
F2.4849066497880004
sg13
F0.0
sg14
F2.8903717578961645
sg15
F0.0
sg16
F0.0
sg17
F0.0
sg18
I00
sg19
F0.0
sg20
F-0.40546510810816444
sg21
F0.0
sg22
F0.0
ssS'BLACHMAN JEREMY M'
p45
(dp46
g3
F12.423383218051939
sg4
F7.75190533307861
sg5
F0.0
sg6
F14.516047864154011
sg7
F13.631358126141045
sg8
F7.813995675002791
sg9
F13.652991628466498
sg10
F13.76878995078367
sg11
F11.34104520759356
sg12
F3.2188758248682006
sg13
F13.548040179456299
sg14
F2.6390573296152584
sg15
F5.605802066295998
sg16
F0.6931471805599453
sg17
F-7.120848494442845
sg18
I00
sg19
F0.0
sg20
F0.5798184952529422
sg21
F12.149719201732536
sg22
F0.0
ssS'SUNDE MARTIN'
p47
(dp48
g3
F12.458720628675845
sg4
F7.84971375760487
sg5
F0.0
sg6
F14.250572655287117
sg7
F13.074120163630255
sg8
F7.881182202227102
sg9
F13.458835614025542
sg10
F13.457291565452975
sg11
F0.0
sg12
F3.6109179126442243
sg13
F0.0
sg14
F3.6375861597263857
sg15
F11.618383975826369
sg16
F2.5649493574615367
sg17
F-5.3162328447655645
sg18
I00
sg19
F0.0
sg20
F-0.026668247082161294
sg21
F13.457291565452975
sg22
F0.0
ssS'GIBBS DANA R'
p49
(dp50
g3
F0.0
sg4
F3.1354942159291497
sg5
F13.131541132670096
sg6
F13.781459339916726
sg7
F13.043129675730507
sg8
F5.1298987149230735
sg9
F0.0
sg10
F14.612240424779461
sg11
F0.0
sg12
F0.0
sg13
F14.612240424779461
sg14
F2.4849066497880004
sg15
F0.0
sg16
F0.0
sg17
F0.0
sg18
I00
sg19
F0.0
sg20
F0.0
sg21
F0.0
sg22
F0.0
ssS'LOWRY CHARLES P'
p51
(dp52
g3
F0.0
sg4
F0.0
sg5
F0.0
sg6
F0.0
sg7
F0.0
sg8
F0.0
sg9
F0.0
sg10
F12.827200056737887
sg11
F0.0
sg12
F0.0
sg13
F12.827200056737887
sg14
F0.0
sg15
F0.0
sg16
F0.0
sg17
F0.0
sg18
I00
sg19
F0.0
sg20
F0.0
sg21
F11.942666838845852
sg22
F0.0
ssS'COLWELL WESLEY'
p53
(dp54
g3
F12.57259593492372
sg4
F7.0317412587631285
sg5
F10.225933304924201
sg6
F14.214517523757912
sg7
F0.0
sg8
F7.471932078245122
sg9
F13.997832114758229
sg10
F13.456321026527323
sg11
F9.711963784977375
sg12
F5.480638923341991
sg13
F0.0
sg14
F3.6888794541139363
sg15
F11.530175818376756
sg16
F2.3978952727983707
sg17
F-5.0740368054467515
sg18
I01
sg19
F11.877999041451247
sg20
F1.791759469228055
sg21
F13.456321026527323
sg22
F0.0
ssS'MULLER MARK S'
p55
(dp56
g3
F12.435810407170571
sg4
F4.736198448394496
sg5
F13.644632078708707
sg6
F14.979308033636507
sg7
F14.361053500577409
sg8
F4.912654885736052
sg9
F13.9108207377686
sg10
F14.163945244041189
sg11
F0.0
sg12
F2.4849066497880004
sg13
F13.870301727646964
sg14
F2.772588722239781
sg15
F6.853299093186078
sg16
F0.0
sg17
F0.0
sg18
I00
sg19
F13.485616636703183
sg20
F-0.2876820724517809
sg21
F12.795324902593903
sg22
F0.0
ssS'JACKSON CHARLENE R'
p57
(dp58
g3
F12.572651384585837
sg4
F4.762173934797756
sg5
F0.0
sg6
F13.219805827757735
sg7
F0.0
sg8
F5.552959584921617
sg9
F12.429216196844383
sg10
F13.494940213399085
sg11
F9.228278517107196
sg12
F3.2188758248682006
sg13
F12.128451586630232
sg14
F4.02535169073515
sg15
F7.79770203551669
sg16
F2.9444389791664403
sg17
F-2.608520605755177
sg18
I00
sg19
F0.0
sg20
F-0.8064758658669484
sg21
F13.200568089305715
sg22
F0.0
ssS'WESTFAHL RICHARD K'
p59
(dp60
g3
F11.06263034094427
sg4
F0.0
sg5
F0.0
sg6
F13.543878984331187
sg7
F12.45367853902212
sg8
F0.0
sg9
F0.0
sg10
F12.860816778557174
sg11
F10.856495867345446
sg12
F0.0
sg13
F0.0
sg14
F0.0
sg15
F12.90204084327682
sg16
F0.0
sg17
F0.0
sg18
I00
sg19
F9.287301413112312
sg20
F0.0
sg21
F12.860816778557174
sg22
F0.0
ssS'WALTERS GARETH W'
p61
(dp62
g3
F0.0
sg4
F0.0
sg5
F10.889770656230318
sg6
F11.378364971574534
sg7
F0.0
sg8
F0.0
sg9
F0.0
sg10
F13.845388726678646
sg11
F10.427772195986275
sg12
F0.0
sg13
F13.845388726678646
sg14
F0.0
sg15
F0.0
sg16
F0.0
sg17
F0.0
sg18
I00
sg19
F0.0
sg20
F0.0
sg21
F0.0
sg22
F0.0
ssS'WALLS JR ROBERT H'
p63
(dp64
g3
F12.785745930240575
sg4
F5.3706380281276624
sg5
F0.0
sg6
F14.402619215293418
sg7
F13.200714193096998
sg8
F6.508769136971682
sg9
F13.652991628466498
sg10
F15.59029289442431
sg11
F10.838325221696861
sg12
F2.833213344056216
sg13
F15.28489160453756
sg14
F4.983606621708336
sg15
F0.6931471805599453
sg16
F0.0
sg17
F0.0
sg18
I00
sg19
F0.0
sg20
F-2.1503932776521206
sg21
F14.255346818579499
sg22
F0.0
ssS'KITCHEN LOUISE'
p65
(dp66
g3
F12.511503767541784
sg4
F8.207674424355282
sg5
F0.0
sg6
F15.059993916317909
sg7
F0.0
sg8
F9.024613022047395
sg9
F14.946912669455374
sg10
F13.212465473198087
sg11
F8.661120360222881
sg12
F5.5254529391317835
sg13
F11.302722817788819
sg14
F7.454719949364001
sg15
F11.45025187044217
sg16
F5.267858159063328
sg17
F-3.7567548629840672
sg18
I00
sg19
F0.0
sg20
F-1.9292670102322171
sg21
F13.052157627820877
sg22
F0.0
ssS'CHAN RONNIE'
p67
(dp68
g3
F0.0
sg4
F0.0
sg5
F0.0
sg6
F0.0
sg7
F0.0
sg8
F0.0
sg9
F0.0
sg10
F0.0
sg11
F0.0
sg12
F0.0
sg13
F0.0
sg14
F0.0
sg15
F0.0
sg16
F0.0
sg17
F0.0
sg18
I00
sg19
F11.500690927301886
sg20
F0.0
sg21
F10.387763841068582
sg22
F11.500690927301886
ssS'BELFER ROBERT'
p69
(dp70
g3
F0.0
sg4
F0.0
sg5
F11.5376180775606
sg6
F11.5376180775606
sg7
F0.0
sg8
F0.0
sg9
F0.0
sg10
F10.694056318677243
sg11
F0.0
sg12
F0.0
sg13
F8.09712193091871
sg14
F0.0
sg15
F0.0
sg16
F0.0
sg17
F0.0
sg18
I00
sg19
F0.0
sg20
F0.0
sg21
F0.0
sg22
F8.09712193091871
ssS'SHANKMAN JEFFREY A'
p71
(dp72
g3
F12.625144757044556
sg4
F7.455876687491824
sg5
F0.0
sg6
F14.926941008518975
sg7
F13.225681408610182
sg8
F8.0774471493312
sg9
F14.508657738524219
sg10
F14.544041774110736
sg11
F12.095023759504793
sg12
F4.543294782270004
sg13
F14.181470859235034
sg14
F7.893945138235959
sg15
F7.0825485693553
sg16
F4.418840607796598
sg17
F-3.658606541534601
sg18
I00
sg19
F0.0
sg20
F-3.3506503559659553
sg21
F13.353692535044107
sg22
F0.0
ssS'WODRASKA JOHN'
p73
(dp74
g3
F0.0
sg4
F0.0
sg5
F0.0
sg6
F12.152582202335884
sg7
F0.0
sg8
F0.0
sg9
F0.0
sg10
F0.0
sg11
F0.0
sg12
F0.0
sg13
F0.0
sg14
F0.0
sg15
F12.152582202335884
sg16
F0.0
sg17
F0.0
sg18
I00
sg19
F0.0
sg20
F0.0
sg21
F0.0
sg22
F0.0
ssS'BERGSIEKER RICHARD P'
p75
(dp76
g3
F12.143782262102894
sg4
F5.4510384535657
sg5
F0.0
sg6
F13.335618195968168
sg7
F12.102100055147195
sg8
F5.948034989180646
sg9
F12.429216196844383
sg10
F13.398856587339147
sg11
F10.988254434382185
sg12
F1.3862943611198906
sg13
F0.0
sg14
F4.07753744390572
sg15
F12.965279065349533
sg16
F0.0
sg17
F0.0
sg18
I00
sg19
F13.093579055175699
sg20
F-2.691243082785829
sg21
F13.398856587339147
sg22
F0.0
ssS'URQUHART JOHN A'
p77
(dp78
g3
F0.0
sg4
F0.0
sg5
F0.0
sg6
F12.339973969721576
sg7
F0.0
sg8
F0.0
sg9
F0.0
sg10
F0.0
sg11
F12.339973969721576
sg12
F0.0
sg13
F0.0
sg14
F0.0
sg15
F0.0
sg16
F0.0
sg17
F0.0
sg18
I00
sg19
F10.50960517412297
sg20
F0.0
sg21
F0.0
sg22
F10.50960517412297
ssS'BIBI PHILIPPE A'
p79
(dp80
g3
F12.271977420417892
sg4
F7.197435354096591
sg5
F0.0
sg6
F14.532175514923269
sg7
F12.820503946124596
sg8
F7.382124365737512
sg9
F13.815510557964274
sg10
F14.427347895039754
sg11
F10.559944814778241
sg12
F3.1354942159291497
sg13
F14.197866698853527
sg14
F3.6888794541139363
sg15
F12.961461962553532
sg16
F2.0794415416798357
sg17
F-5.302682824057677
sg18
I00
sg19
F0.0
sg20
F-0.5533852381847867
sg21
F12.842866382292481
sg22
F0.0
ssS'PIRO JIM'
p81
(dp82
g3
F0.0
sg4
F1.0986122886681098
sg5
F0.0
sg6
F0.0
sg7
F0.0
sg8
F4.060443010546419
sg9
F0.0
sg10
F10.764350137500665
sg11
F0.0
sg12
F0.0
sg13
F0.0
sg14
F2.772588722239781
sg15
F0.0
sg16
F0.0
sg17
F-4.060443010546419
sg18
I00
sg19
F0.0
sg20
F0.0
sg21
F10.764350137500665
sg22
F0.0
ssS'RIEKER PAULA H'
p83
(dp84
g3
F12.426015078728476
sg4
F7.1372784372603855
sg5
F12.276894510055829
sg6
F13.910002221056992
sg7
F0.0
sg8
F7.191429330036379
sg9
F13.458835614025542
sg10
F14.467255888420205
sg11
F10.412441425669323
sg12
F3.5553480614894135
sg13
F14.30729891746906
sg14
F4.406719247264253
sg15
F7.575584651557793
sg16
F3.871201010907891
sg17
F-3.3202283191284883
sg18
I01
sg19
F11.512925464970229
sg20
F-0.8513711857748395
sg21
F12.555492837276967
sg22
F0.0
ssS'WHALEY DAVID A'
p85
(dp86
g3
F0.0
sg4
F0.0
sg5
F0.0
sg6
F0.0
sg7
F0.0
sg8
F0.0
sg9
F0.0
sg10
F11.500022579614704
sg11
F0.0
sg12
F0.0
sg13
F11.500022579614704
sg14
F0.0
sg15
F0.0
sg16
F0.0
sg17
F0.0
sg18
I00
sg19
F0.0
sg20
F0.0
sg21
F0.0
sg22
F0.0
ssS'BECK SALLY W'
p87
(dp88
g3
F12.351600541495117
sg4
F7.878155336503324
sg5
F0.0
sg6
F13.78409006384932
sg7
F0.0
sg8
F8.897682313454224
sg9
F13.458835614025542
sg10
F11.744251448691996
sg11
F10.52331106867723
sg12
F4.969813299576001
sg13
F0.0
sg14
F8.376320632534823
sg15
F6.338594078203183
sg16
F5.955837369464831
sg17
F-2.941844943989394
sg18
I00
sg19
F0.0
sg20
F-3.4065073329588214
sg21
F11.744251448691996
sg22
F0.0
ssS'HAUG DAVID L'
p89
(dp90
g3
F0.0
sg4
F6.154858094016418
sg5
F0.0
sg6
F6.163314804034641
sg7
F0.0
sg8
F6.35088571671474
sg9
F0.0
sg10
F14.611800346442024
sg11
F6.163314804034641
sg12
F1.3862943611198906
sg13
F0.0
sg14
F2.9444389791664403
sg15
F0.0
sg16
F1.9459101490553132
sg17
F-4.404975567659426
sg18
I00
sg19
F0.0
sg20
F-1.55814461804655
sg21
F14.611800346442024
sg22
F0.0
ssS'ECHOLS JOHN B'
p91
(dp92
g3
F12.113107214652313
sg4
F0.0
sg5
F0.0
sg6
F14.805915319116664
sg7
F14.619650662348747
sg8
F0.0
sg9
F12.206072645530174
sg10
F13.824411823889719
sg11
F9.97720259035841
sg12
F0.0
sg13
F13.307078733439988
sg14
F0.0
sg15
F10.89256395413593
sg16
F0.0
sg17
F0.0
sg18
I00
sg19
F0.0
sg20
F0.0
sg21
F12.917803573599146
sg22
F0.0
ssS'MENDELSOHN JOHN'
p93
(dp94
g3
F0.0
sg4
F0.0
sg5
F0.0
sg6
F4.997212273764115
sg7
F0.0
sg8
F0.0
sg9
F0.0
sg10
F0.0
sg11
F4.997212273764115
sg12
F0.0
sg13
F0.0
sg14
F0.0
sg15
F0.0
sg16
F0.0
sg17
F0.0
sg18
I00
sg19
F11.549739438092944
sg20
F0.0
sg21
F0.0
sg22
F11.549739438092944
ssS'HICKERSON GARY J'
p95
(dp96
g3
F12.263341053320566
sg4
F6.802394763324311
sg5
F0.0
sg6
F14.548741540647498
sg7
F11.145088456325304
sg8
F7.1853870155804165
sg9
F14.346138809026444
sg10
F12.99701781781342
sg11
F11.501348712209706
sg12
F3.6888794541139363
sg13
F0.0
sg14
F3.295836866004329
sg15
F7.568379267836522
sg16
F0.0
sg17
F-7.1853870155804165
sg18
I00
sg19
F0.0
sg20
F0.3930425881096072
sg21
F12.99701781781342
sg22
F0.0
ssS'CLINE KENNETH W'
p97
(dp98
g3
F0.0
sg4
F0.0
sg5
F0.0
sg6
F0.0
sg7
F0.0
sg8
F0.0
sg9
F0.0
sg10
F12.152239285801045
sg11
F0.0
sg12
F0.0
sg13
F0.0
sg14
F0.0
sg15
F0.0
sg16
F0.0
sg17
F0.0
sg18
I00
sg19
F0.0
sg20
F0.0
sg21
F13.403150735847213
sg22
F0.0
ssS'LEWIS RICHARD'
p99
(dp100
g3
F0.0
sg4
F6.6052979209482015
sg5
F0.0
sg6
F0.0
sg7
F0.0
sg8
F6.858565034791365
sg9
F0.0
sg10
F13.653552647536456
sg11
F0.0
sg12
F2.302585092994046
sg13
F13.653552647536456
sg14
F3.258096538021482
sg15
F0.0
sg16
F0.0
sg17
F0.0
sg18
I00
sg19
F0.0
sg20
F-0.9555114450274363
sg21
F0.0
sg22
F0.0
ssS'HAYES ROBERT E'
p101
(dp102
g3
F0.0
sg4
F3.912023005428146
sg5
F8.982309899088579
sg6
F8.982309899088579
sg7
F0.0
sg8
F6.222576268071369
sg9
F0.0
sg10
F11.927799503275258
sg11
F0.0
sg12
F2.772588722239781
sg13
F0.0
sg14
F2.4849066497880004
sg15
F0.0
sg16
F0.0
sg17
F0.0
sg18
I00
sg19
F0.0
sg20
F0.28768207245178085
sg21
F11.927799503275258
sg22
F0.0
ssS'KOPPER MICHAEL J'
p103
(dp104
g3
F12.320762011833631
sg4
F0.0
sg5
F0.0
sg6
F14.791055372895537
sg7
F13.309126721505786
sg8
F0.0
sg9
F13.592367006650065
sg10
F13.80042940693617
sg11
F11.679574852369887
sg12
F0.0
sg13
F0.0
sg14
F0.0
sg15
F13.718451048975464
sg16
F0.0
sg17
F0.0
sg18
I01
sg19
F0.0
sg20
F0.0
sg21
F13.80042940693617
sg22
F0.0
ssS'LEFF DANIEL P'
p105
(dp106
g3
F12.519955948133948
sg4
F7.890582534656536
sg5
F0.0
sg6
F14.795424892565766
sg7
F14.14294132916041
sg8
F7.945201132412759
sg9
F13.815510557964274
sg10
F12.795324902593903
sg11
F0.0
sg12
F4.204692619390966
sg13
F0.0
sg14
F4.143134726391533
sg15
F8.03365842788615
sg16
F2.6390573296152584
sg17
F-5.306143802797501
sg18
I00
sg19
F0.0
sg20
F0.061557892999433365
sg21
F12.795324902593903
sg22
F0.0
ssS'LAVORATO JOHN J'
p107
(dp108
g3
F12.734604583214978
sg4
F8.284504227258497
sg5
F0.0
sg6
F16.15978993692175
sg7
F14.52619309161328
sg8
F8.889997357284841
sg9
F15.89495209964411
sg10
F15.457830676050715
sg11
F10.810475144084139
sg12
F6.269096283706261
sg13
F15.240784016512256
sg14
F7.85748078694253
sg15
F7.347299700743164
sg16
F6.018593214496234
sg17
F-2.871404142788606
sg18
I00
sg19
F0.0
sg20
F-1.588384503236268
sg21
F13.823626534149843
sg22
F0.0
ssS'BERBERIAN DAVID'
p109
(dp110
g3
F12.28572450760275
sg4
F0.0
sg5
F0.0
sg6
F12.339177697284342
sg7
F0.0
sg8
F0.0
sg9
F0.0
sg10
F14.72924442384073
sg11
F9.383621184117988
sg12
F0.0
sg13
F14.300646612343575
sg14
F0.0
sg15
F0.0
sg16
F0.0
sg17
F0.0
sg18
I00
sg19
F0.0
sg20
F0.0
sg21
F13.675351536763753
sg22
F0.0
ssS'DETMERING TIMOTHY J'
p111
(dp112
g3
F12.257240932104573
sg4
F0.0
sg5
F13.682329960946634
sg6
F14.001644006923687
sg7
F12.93761567990969
sg8
F0.0
sg9
F12.959844447906553
sg10
F14.522494073430122
sg11
F10.863890859028604
sg12
F0.0
sg13
F14.522494073430122
sg14
F0.0
sg15
F7.007600613951853
sg16
F0.0
sg17
F0.0
sg18
I00
sg19
F13.560929227736972
sg20
F0.0
sg21
F12.660543767526416
sg22
F0.0
ssS'WAKEHAM JOHN'
p113
(dp114
g3
F0.0
sg4
F0.0
sg5
F0.0
sg6
F12.269380722481683
sg7
F0.0
sg8
F0.0
sg9
F0.0
sg10
F0.0
sg11
F11.549961100271057
sg12
F0.0
sg13
F0.0
sg14
F0.0
sg15
F0.0
sg16
F0.0
sg17
F0.0
sg18
I00
sg19
F0.0
sg20
F0.0
sg21
F0.0
sg22
F11.60183337573555
ssS'POWERS WILLIAM'
p115
(dp116
g3
F0.0
sg4
F2.4849066497880004
sg5
F0.0
sg6
F0.0
sg7
F0.0
sg8
F6.481577129276431
sg9
F0.0
sg10
F0.0
sg11
F0.0
sg12
F0.0
sg13
F0.0
sg14
F3.258096538021482
sg15
F0.0
sg16
F0.0
sg17
F0.0
sg18
I00
sg19
F9.769956159911606
sg20
F0.0
sg21
F0.0
sg22
F9.769956159911606
ssS'GOLD JOSEPH'
p117
(dp118
g3
F12.516787417092527
sg4
F0.0
sg5
F0.0
sg6
F14.579569501094838
sg7
F12.627427506859556
sg8
F0.0
sg9
F13.527828485512494
sg10
F13.684958722048744
sg11
F0.0
sg12
F0.0
sg13
F12.986578017932525
sg14
F0.0
sg15
F13.616190949373063
sg16
F0.0
sg17
F0.0
sg18
I00
sg19
F0.0
sg20
F0.0
sg21
F12.99701781781342
sg22
F0.0
ssS'BANNANTINE JAMES M'
p119
(dp120
g3
F6.1675164908883415
sg4
F6.142037405587356
sg5
F0.0
sg6
F13.72798668603518
sg7
F0.0
sg8
F6.338594078203183
sg9
F0.0
sg10
F15.472497292993488
sg11
F10.938467575959383
sg12
F3.6635616461296463
sg13
F15.213278099713778
sg14
F3.367295829986474
sg15
F13.66993318872555
sg16
F0.0
sg17
F0.0
sg18
I00
sg19
F8.537779825024625
sg20
F0.29626581614317243
sg21
F14.379432489711474
sg22
F0.0
ssS'DUNCAN JOHN H'
p121
(dp122
g3
F0.0
sg4
F0.0
sg5
F0.0
sg6
F11.257929984206836
sg7
F0.0
sg8
F0.0
sg9
F0.0
sg10
F12.825976864322401
sg11
F0.0
sg12
F0.0
sg13
F12.825976864322401
sg14
F0.0
sg15
F0.0
sg16
F0.0
sg17
F0.0
sg18
I00
sg19
F10.126631103850338
sg20
F0.0
sg21
F0.0
sg22
F11.537540025734147
ssS'SHAPIRO RICHARD S'
p123
(dp124
g3
F12.50274914656153
sg4
F8.417814747435958
sg5
F0.0
sg6
F13.871463578943393
sg7
F0.0
sg8
F9.625689802158323
sg9
F13.38472764187182
sg10
F13.80242633158633
sg11
F11.833319131378751
sg12
F4.30406509320417
sg13
F13.317662032899928
sg14
F7.102499355774649
sg15
F6.558197802812269
sg16
F4.174387269895637
sg17
F-5.4513025322626865
sg18
I00
sg19
F0.0
sg20
F-2.798434262570479
sg21
F12.845724108147369
sg22
F0.0
ssS'SHERRIFF JOHN R'
p125
(dp126
g3
F12.968699245859922
sg4
F7.6511201757027
sg5
F0.0
sg6
F15.282321668228441
sg7
F13.225681408610182
sg8
F8.066835314417336
sg9
F14.22097566607244
sg10
F14.956218269997848
sg11
F0.0
sg12
F3.332204510175204
sg13
F14.422859080439128
sg14
F4.5217885770490405
sg15
F14.431877121110752
sg16
F3.1354942159291497
sg17
F-4.931341098488187
sg18
I00
sg19
F0.0
sg20
F-1.1895840668738362
sg21
F14.072803523567023
sg22
F0.0
ssS'SHELBY REX'
p127
(dp128
g3
F12.263605433727742
sg4
F4.51085950651685
sg5
F0.0
sg6
F14.510598354310757
sg7
F0.0
sg8
F5.41610040220442
sg9
F12.206072645530174
sg10
F14.72924442384073
sg11
F10.03819325538842
sg12
F2.5649493574615367
sg13
F14.300646612343575
sg14
F3.6635616461296463
sg15
F14.268701136672643
sg16
F2.6390573296152584
sg17
F-2.7770430725891617
sg18
I01
sg19
F8.334951631422454
sg20
F-1.0986122886681098
sg21
F13.675351536763753
sg22
F0.0
ssS'LEMAISTRE CHARLES'
p129
(dp130
g3
F0.0
sg4
F0.0
sg5
F0.0
sg6
F11.37930263959443
sg7
F0.0
sg8
F0.0
sg9
F0.0
sg10
F12.9309074287884
sg11
F0.0
sg12
F0.0
sg13
F12.9309074287884
sg14
F0.0
sg15
F0.0
sg16
F0.0
sg17
F0.0
sg18
I00
sg19
F10.126631103850338
sg20
F0.0
sg21
F0.0
sg22
F11.630637386986987
ssS'DEFFNER JOSEPH M'
p131
(dp132
g3
F12.236218653973182
sg4
F6.313548046277095
sg5
F0.0
sg6
F14.005013764864525
sg7
F12.72292705956429
sg8
F6.570882962339584
sg9
F13.304684934198283
sg10
F11.977985645482825
sg11
F10.636480251018197
sg12
F4.74493212836325
sg13
F9.762960317399152
sg14
F4.30406509320417
sg15
F10.14851000556878
sg16
F1.3862943611198906
sg17
F-5.184588601219693
sg18
I00
sg19
F0.0
sg20
F0.44086703515908027
sg21
F11.862405588148432
sg22
F0.0
ssS'KISHKILL JOSEPH G'
p133
(dp134
g3
F12.068223372835615
sg4
F0.0
sg5
F0.0
sg6
F13.465805553182099
sg7
F0.0
sg8
F0.0
sg9
F0.0
sg10
F13.849279900900765
sg11
F11.664229239061394
sg12
F0.0
sg13
F0.0
sg14
F0.0
sg15
F13.050560131941893
sg16
F0.0
sg17
F0.0
sg18
I00
sg19
F10.840404102203939
sg20
F0.0
sg21
F13.849279900900765
sg22
F0.0
ssS'WHALLEY LAWRENCE G'
p135
(dp136
g3
F13.142879475609794
sg4
F8.273846932784508
sg5
F0.0
sg6
F15.358290157422129
sg7
F13.60274546366593
sg8
F8.70267641154777
sg9
F14.914122846632385
sg10
F15.62037330307833
sg11
F10.965401278088198
sg12
F5.225746673713202
sg13
F15.004256012431435
sg14
F6.320768294250582
sg15
F12.614951918738125
sg16
F3.1780538303479458
sg17
F-5.524622581199825
sg18
I00
sg19
F0.0
sg20
F-1.0950216205373813
sg21
F14.843763685053208
sg22
F0.0
ssS'MCCARTY DANNY J'
p137
(dp138
g3
F0.0
sg4
F6.230481447578482
sg5
F0.0
sg6
F0.0
sg7
F0.0
sg8
F7.267525427828172
sg9
F0.0
sg10
F13.539666143154376
sg11
F0.0
sg12
F3.2188758248682006
sg13
F13.40660202807835
sg14
F5.3706380281276624
sg15
F0.0
sg16
F0.6931471805599453
sg17
F-6.574378247268227
sg18
I00
sg19
F0.0
sg20
F-2.151762203259462
sg21
F11.456947530560772
sg22
F0.0
ssS'MCCONNELL MICHAEL S'
p139
(dp140
g3
F12.807756736734643
sg4
F7.691200097522863
sg5
F0.0
sg6
F14.558097215653882
sg7
F13.225681408610182
sg8
F8.110427237575024
sg9
F13.9108207377686
sg10
F14.947325165012545
sg11
F11.306688193722378
sg12
F4.5217885770490405
sg13
F14.299793007907198
sg14
F7.91644286012226
sg15
F6.29156913955832
sg16
F5.267858159063328
sg17
F-2.842569078511697
sg18
I00
sg19
F0.0
sg20
F-3.3946542830732196
sg21
F14.206382366636161
sg22
F0.0
ssS'DELAINEY DAVID W'
p141
(dp142
g3
F12.808099108222002
sg4
F7.64826303090192
sg5
F0.0
sg6
F15.373229611787004
sg7
F14.074006581193471
sg8
F8.03689677268507
sg9
F14.914122846632385
sg10
F15.100397966674393
sg11
F11.364123787024146
sg12
F4.189654742026425
sg13
F14.644548283658818
sg14
F8.029107054619736
sg15
F7.415175109613295
sg16
F6.411818267709897
sg17
F-1.6250785049751726
sg18
I01
sg19
F0.0
sg20
F-3.8394523125933104
sg21
F14.09552430380946
sg22
F0.0
ssS'SULLIVAN-SHAKLOVITZ COLLEEN'
p143
(dp144
g3
F12.00014873160132
sg4
F0.0
sg5
F12.111723503780807
sg6
F13.8148663505072
sg7
F13.225681408610182
sg8
F0.0
sg9
F11.512925464970229
sg10
F14.124740058191612
sg11
F0.0
sg12
F0.0
sg13
F14.124740058191612
sg14
F0.0
sg15
F5.087596335232384
sg16
F0.0
sg17
F0.0
sg18
I00
sg19
F0.0
sg20
F0.0
sg21
F0.0
sg22
F0.0
ssS'WROBEL BRUCE'
p145
(dp146
g3
F0.0
sg4
F0.0
sg5
F0.0
sg6
F0.0
sg7
F0.0
sg8
F0.0
sg9
F0.0
sg10
F11.843164026835922
sg11
F0.0
sg12
F0.0
sg13
F11.843164026835922
sg14
F0.0
sg15
F0.0
sg16
F0.0
sg17
F0.0
sg18
I00
sg19
F0.0
sg20
F0.0
sg21
F0.0
sg22
F0.0
ssS'LINDHOLM TOD A'
p147
(dp148
g3
F12.373521652201378
sg4
F0.0
sg5
F12.226242852319556
sg6
F13.682994649561076
sg7
F12.072541252905651
sg8
F0.0
sg9
F12.206072645530174
sg10
F14.935299692656022
sg11
F10.96348028065585
sg12
F0.0
sg13
F14.751353297496836
sg14
F0.0
sg15
F7.874739125171811
sg16
F0.0
sg17
F0.0
sg18
I00
sg19
F0.0
sg20
F0.0
sg21
F13.151625048128034
sg22
F0.0
ssS'MEYER JEROME J'
p149
(dp150
g3
F0.0
sg4
F0.0
sg5
F0.0
sg6
F7.67368812926773
sg7
F0.0
sg8
F0.0
sg9
F0.0
sg10
F0.0
sg11
F7.67368812926773
sg12
F0.0
sg13
F0.0
sg14
F0.0
sg15
F0.0
sg16
F0.0
sg17
F0.0
sg18
I00
sg19
F10.554405498878337
sg20
F0.0
sg21
F0.0
sg22
F10.554405498878337
ssS'LAY KENNETH L'
p151
(dp152
g3
F13.885336016088093
sg4
F7.787796878181171
sg5
F12.220522738242858
sg6
F18.455659714004362
sg7
F15.096444403426338
sg8
F8.360071435644025
sg9
F15.761420707019587
sg10
F17.709574826285394
sg11
F11.51124405218769
sg12
F4.812184355372417
sg13
F17.35206553040225
sg14
F3.58351893845611
sg15
F16.153436636152318
sg16
F2.772588722239781
sg17
F-5.587482713404244
sg18
I01
sg19
F12.611537753638338
sg20
F1.2286654169163074
sg21
F16.507546140198766
sg22
F0.0
ssS'BUTTS ROBERT H'
p153
(dp154
g3
F12.474250746083811
sg4
F0.0
sg5
F0.0
sg6
F14.055772352523817
sg7
F12.072541252905651
sg8
F0.0
sg9
F13.527828485512494
sg10
F12.942324812599852
sg11
F9.149528232579426
sg12
F0.0
sg13
F0.0
sg14
F0.0
sg15
F11.922754371179893
sg16
F0.0
sg17
F0.0
sg18
I00
sg19
F11.225243392518447
sg20
F0.0
sg21
F12.942324812599852
sg22
F0.0
ssS'OLSON CINDY K'
p155
(dp156
g3
F12.704050083714867
sg4
F6.752270376141742
sg5
F11.260816435363003
sg6
F14.09432114489992
sg7
F11.512925464970229
sg8
F7.076653815443951
sg9
F13.527828485512494
sg10
F14.773619779692249
sg11
F11.06336739355144
sg12
F2.995732273553991
sg13
F14.308396625838256
sg14
F3.9512437185814275
sg15
F6.879355804460439
sg16
F2.70805020110221
sg17
F-4.368603614341741
sg18
I00
sg19
F0.0
sg20
F-0.9555114450274363
sg21
F13.784771930002
sg22
F0.0
ssS'MCDONALD REBECCA'
p157
(dp158
g3
F0.0
sg4
F6.579251212010101
sg5
F0.0
sg6
F0.0
sg7
F0.0
sg8
F6.795705775173514
sg9
F0.0
sg10
F14.34104704443731
sg11
F0.0
sg12
F3.9889840465642745
sg13
F13.537516075581697
sg14
F2.5649493574615367
sg15
F0.0
sg16
F0.0
sg17
F-6.795705775173515
sg18
I00
sg19
F0.0
sg20
F1.4240346891027378
sg21
F13.74730130793724
sg22
F0.0
ssS'CUMBERLAND MICHAEL S'
p159
(dp160
g3
F12.127565009031764
sg4
F0.0
sg5
F0.0
sg6
F13.602262880574937
sg7
F12.524526376648708
sg8
F0.0
sg9
F12.691580461311874
sg10
F12.245004855531961
sg11
F10.014313107625012
sg12
F0.0
sg13
F0.0
sg14
F0.0
sg15
F6.569481420414296
sg16
F0.0
sg17
F0.0
sg18
I00
sg19
F0.0
sg20
F0.0
sg21
F12.245004855531961
sg22
F0.0
ssS'GAHN ROBERT S'
p161
(dp162
g3
F12.165292316808554
sg4
F0.0
sg5
F11.199884558051558
sg6
F13.710799831147945
sg7
F0.0
sg8
F0.0
sg9
F13.141911070246698
sg10
F12.67171364734039
sg11
F10.82137700577398
sg12
F0.0
sg13
F11.329447239492891
sg14
F0.0
sg15
F11.245660210246031
sg16
F0.0
sg17
F0.0
sg18
I00
sg19
F6.948897222313312
sg20
F0.0
sg21
F12.368914023036002
sg22
F0.0
ssS'MCCLELLAN GEORGE'
p163
(dp164
g3
F12.481478421667193
sg4
F7.292337176173877
sg5
F0.0
sg6
F14.09220473397783
sg7
F0.0
sg8
F7.463936604468925
sg9
F13.710150042306449
sg10
F13.761963146014166
sg11
F12.340441812124062
sg12
F3.9512437185814275
sg13
F13.135802664270836
sg14
F3.8918202981106265
sg15
F10.851024981743453
sg16
F0.0
sg17
F0.0
sg18
I00
sg19
F11.736069016284437
sg20
F0.059423420470800806
sg21
F12.99701781781342
sg22
F0.0
ssS'HERMANN ROBERT J'
p165
(dp166
g3
F12.47862712068361
sg4
F0.0
sg5
F0.0
sg6
F14.075919835766967
sg7
F11.918390573078392
sg8
F0.0
sg9
F13.458835614025542
sg10
F13.412241037787947
sg11
F10.786366268065041
sg12
F0.0
sg13
F12.141534124392603
sg14
F0.0
sg15
F12.939500073892116
sg16
F0.0
sg17
F0.0
sg18
I00
sg19
F12.542544882151386
sg20
F0.0
sg21
F13.082857183505297
sg22
F0.0
ssS'SCRIMSHAW MATTHEW'
p167
(dp168
g3
F0.0
sg4
F0.0
sg5
F0.0
sg6
F0.0
sg7
F0.0
sg8
F0.0
sg9
F0.0
sg10
F13.54049064757649
sg11
F0.0
sg12
F0.0
sg13
F13.54049064757649
sg14
F0.0
sg15
F0.0
sg16
F0.0
sg17
F0.0
sg18
I00
sg19
F0.0
sg20
F0.0
sg21
F0.0
sg22
F0.0
ssS'GATHMANN WILLIAM D'
p169
(dp170
g3
F0.0
sg4
F0.0
sg5
F0.0
sg6
F0.0
sg7
F0.0
sg8
F0.0
sg9
F0.0
sg10
F14.48095760788194
sg11
F0.0
sg12
F0.0
sg13
F14.377276033664389
sg14
F0.0
sg15
F0.0
sg16
F0.0
sg17
F0.0
sg18
I00
sg19
F0.0
sg20
F0.0
sg21
F12.483753623340327
sg22
F0.0
ssS'HAEDICKE MARK E'
p171
(dp172
g3
F12.832345245155
sg4
F7.52131798019924
sg5
F14.58447321634577
sg6
F15.165935484119803
sg7
F13.79871632092086
sg8
F8.296297112642508
sg9
F13.955272500339433
sg10
F13.596227047098962
sg11
F11.240709834752362
sg12
F5.19295685089021
sg13
F13.319162953378937
sg14
F7.57095858316901
sg15
F10.86631829984518
sg16
F4.110873864173311
sg17
F-4.185423248469196
sg18
I00
sg19
F13.747749784275857
sg20
F-2.3780017322787996
sg21
F13.169569430389048
sg22
F0.0
ssS'BOWEN JR RAYMOND M'
p173
(dp174
g3
F12.53753592969685
sg4
F7.373374309910049
sg5
F0.0
sg6
F14.797435085943327
sg7
F13.789467358742236
sg8
F7.527255919373784
sg9
F14.115615150414612
sg10
F12.437402596647882
sg11
F11.09599993639729
sg12
F4.941642422609304
sg13
F0.0
sg14
F3.295836866004329
sg15
F7.390798521735676
sg16
F2.70805020110221
sg17
F-4.819205718271574
sg18
I01
sg19
F6.725033642166843
sg20
F1.6458055566049752
sg21
F12.437402596647882
sg22
F0.0
ssS'GILLIS JOHN'
p175
(dp176
g3
F0.0
sg4
F0.0
sg5
F0.0
sg6
F0.0
sg7
F0.0
sg8
F0.0
sg9
F0.0
sg10
F11.357919419421995
sg11
F0.0
sg12
F0.0
sg13
F9.190443740261726
sg14
F0.0
sg15
F0.0
sg16
F0.0
sg17
F0.0
sg18
I00
sg19
F0.0
sg20
F0.0
sg21
F11.236354765273157
sg22
F0.0
ssS'FITZGERALD JAY L'
p177
(dp178
g3
F12.20184873737695
sg4
F6.583409222158765
sg5
F0.0
sg6
F14.162539023881891
sg7
F13.22927149490841
sg8
F6.841615476477592
sg9
F12.765688433465597
sg10
F14.298699379263248
sg11
F10.080377719332876
sg12
F0.0
sg13
F13.406731464668146
sg14
F2.772588722239781
sg15
F12.561696036781122
sg16
F2.0794415416798357
sg17
F-4.762173934797756
sg18
I00
sg19
F0.0
sg20
F-2.772588722239781
sg21
F13.7713235330746
sg22
F0.0
ssS'MORAN MICHAEL P'
p179
(dp180
g3
F0.0
sg4
F4.844187086458591
sg5
F0.0
sg6
F0.0
sg7
F0.0
sg8
F6.51025834052315
sg9
F0.0
sg10
F12.306555786108417
sg11
F0.0
sg12
F0.0
sg13
F10.99438683899708
sg14
F2.9444389791664403
sg15
F0.0
sg16
F0.0
sg17
F0.0
sg18
I00
sg19
F0.0
sg20
F0.0
sg21
F11.99289180123017
sg22
F0.0
ssS'REDMOND BRIAN L'
p181
(dp182
g3
F11.480815411051994
sg4
F6.968850378341948
sg5
F0.0
sg6
F11.62203992575095
sg7
F0.0
sg8
F7.421177528595393
sg9
F0.0
sg10
F15.881147756617711
sg11
F9.594854193331415
sg12
F5.318119993844216
sg13
F15.831618052836012
sg14
F5.3981627015177525
sg15
F0.0
sg16
F3.8918202981106265
sg17
F-3.529357230484767
sg18
I00
sg19
F0.0
sg20
F-0.08004270767353637
sg21
F12.851302405968784
sg22
F0.0
ssS'BAZELIDES PHILIP J'
p183
(dp184
g3
F11.299954991976355
sg4
F0.0
sg5
F13.436727302108878
sg6
F13.664845795261837
sg7
F11.448386943832658
sg8
F0.0
sg9
F0.0
sg10
F14.285289787034174
sg11
F0.0
sg12
F0.0
sg13
F14.285289787034174
sg14
F0.0
sg15
F6.773080375655535
sg16
F0.0
sg17
F0.0
sg18
I00
sg19
F0.0
sg20
F0.0
sg21
F0.0
sg22
F0.0
ssS'BELDEN TIMOTHY N'
p185
(dp186
g3
F12.273726621095875
sg4
F8.616314282284044
sg5
F14.578189864587284
sg6
F15.520554969932036
sg7
F0.0
sg8
F8.986071187374463
sg9
F15.473738444091598
sg10
F13.920505506810695
sg11
F9.761635928295886
sg12
F5.429345628954441
sg13
F13.767512879694923
sg14
F6.182084906716632
sg15
F12.258181107578269
sg16
F4.68213122712422
sg17
F-4.3039399602502435
sg18
I01
sg19
F14.663280021414984
sg20
F-0.752739277762191
sg21
F11.96761873655022
sg22
F0.0
ssS'DURAN WILLIAM D'
p187
(dp188
g3
F12.25815263039561
sg4
F6.395261598115449
sg5
F0.0
sg6
F14.554234650485707
sg7
F13.915553158543723
sg8
F6.806829360392176
sg9
F13.527828485512494
sg10
F14.310761523961261
sg11
F10.157548206485059
sg12
F4.663439094112067
sg13
F14.1883622499111
sg14
F2.4849066497880004
sg15
F7.357556200910353
sg16
F1.0986122886681098
sg17
F-5.708217071724067
sg18
I00
sg19
F0.0
sg20
F2.178532444324067
sg21
F12.149719201732536
sg22
F0.0
ssS'THORN TERENCE H'
p189
(dp190
g3
F12.310851492051302
sg4
F4.290459441148391
sg5
F9.71631424501115
sg6
F13.722795308414316
sg7
F12.206072645530174
sg8
F5.583496308781699
sg9
F0.0
sg10
F15.387827120040116
sg11
F10.739543891699677
sg12
F0.0
sg13
F15.30897090390122
sg14
F3.713572066704308
sg15
F12.963670062080672
sg16
F0.0
sg17
F0.0
sg18
I00
sg19
F0.0
sg20
F0.0
sg21
F12.808528960805615
sg22
F0.0
ssS'FASTOW ANDREW S'
p191
(dp192
g3
F12.996115112585153
sg4
F0.0
sg5
F0.0
sg6
F14.700963866509227
sg7
F14.367125855728217
sg8
F0.0
sg9
F14.077874822431765
sg10
F14.40018794963791
sg11
F10.931695259437355
sg12
F0.0
sg13
F0.0
sg14
F0.0
sg15
F12.533446474023267
sg16
F0.0
sg17
F0.0
sg18
I01
sg19
F14.141972140484336
sg20
F0.0
sg21
F14.40018794963791
sg22
F0.0
ssS'FOY JOE'
p193
(dp194
g3
F0.0
sg4
F0.6931471805599453
sg5
F12.110414905333732
sg6
F12.110414905333732
sg7
F0.0
sg8
F4.04305126783455
sg9
F0.0
sg10
F12.746750232445345
sg11
F0.0
sg12
F0.0
sg13
F12.746750232445345
sg14
F2.5649493574615367
sg15
F0.0
sg16
F0.0
sg17
F0.0
sg18
I00
sg19
F0.0
sg20
F0.0
sg21
F0.0
sg22
F0.0
ssS'CALGER CHRISTOPHER F'
p195
(dp196
g3
F12.389181392408698
sg4
F7.690743163541872
sg5
F0.0
sg6
F14.309778049363462
sg7
F12.835491643206469
sg8
F7.862497197230545
sg9
F14.038654109278484
sg10
F11.744251448691996
sg11
F10.486205839326685
sg12
F5.293304824724492
sg13
F0.0
sg14
F4.969813299576001
sg15
F6.186208623900494
sg16
F3.2188758248682006
sg17
F-4.643621372362344
sg18
I01
sg19
F12.478006361013815
sg20
F0.3234915251484918
sg21
F11.744251448691996
sg22
F0.0
ssS'RICE KENNETH D'
p197
(dp198
g3
F12.949523130599362
sg4
F6.761572768804055
sg5
F0.0
sg6
F13.132412713257331
sg7
F14.296089941257193
sg8
F6.807934943699926
sg9
F14.375126345899696
sg10
F16.930914704420132
sg11
F10.75683848463641
sg12
F3.7376696182833684
sg13
F16.80089826046264
sg14
F2.8903717578961645
sg15
F12.071620829445909
sg16
F1.3862943611198906
sg17
F-5.421640582580036
sg18
I01
sg19
F15.069525884788623
sg20
F0.8472978603872037
sg21
F14.826516383523218
sg22
F0.0
ssS'KAMINSKI WINCENTY J'
p199
(dp200
g3
F12.524893581947863
sg4
F6.368187186350492
sg5
F0.0
sg6
F13.898767479130127
sg7
F12.686849286935972
sg8
F8.435332164935916
sg9
F12.89921982609012
sg10
F13.791255774512736
sg11
F11.333619357136731
sg12
F3.713572066704308
sg13
F13.653003393103178
sg14
F9.57275879054198
sg15
F8.448700194970938
sg16
F5.14166355650266
sg17
F-3.2936686084332574
sg18
I00
sg19
F0.0
sg20
F-5.859186723837673
sg21
F11.744251448691996
sg22
F0.0
ssS'COX DAVID'
p201
(dp202
g3
F12.658065041974057
sg4
F4.2626798770413155
sg5
F0.0
sg6
F13.912086300242837
sg7
F0.0
sg8
F4.624972813284271
sg9
F13.592367006650065
sg10
F13.113591012476794
sg11
F10.234983140444118
sg12
F0.0
sg13
F11.674627560950322
sg14
F3.4965075614664802
sg15
F6.202535517187923
sg16
F1.3862943611198906
sg17
F-3.2386784521643803
sg18
I00
sg19
F10.627406391762827
sg20
F0.0
sg21
F12.842866382292481
sg22
F0.0
ssS'OVERDYKE JR JERE C'
p203
(dp204
g3
F11.461010925018028
sg4
F0.0
sg5
F0.0
sg6
F12.428363833686095
sg7
F11.819203554704082
sg8
F0.0
sg9
F0.0
sg10
F15.804424639381212
sg11
F9.84341902607001
sg12
F0.0
sg13
F15.47689137374433
sg14
F0.0
sg15
F5.170483995038151
sg16
F0.0
sg17
F0.0
sg18
I00
sg19
F0.0
sg20
F0.0
sg21
F14.528958281055719
sg22
F0.0
ssS'PEREIRA PAULO V. FERRAZ'
p205
(dp206
g3
F0.0
sg4
F0.0
sg5
F0.0
sg6
F10.237886212210432
sg7
F0.0
sg8
F0.0
sg9
F0.0
sg10
F0.0
sg11
F10.237886212210432
sg12
F0.0
sg13
F0.0
sg14
F0.0
sg15
F0.0
sg16
F0.0
sg17
F0.0
sg18
I00
sg19
F11.525347984968786
sg20
F0.0
sg21
F0.0
sg22
F11.525347984968786
ssS'STABLER FRANK'
p207
(dp208
g3
F12.386317046528928
sg4
F0.0
sg5
F0.0
sg6
F13.92174898814235
sg7
F0.0
sg8
F0.0
sg9
F13.122363377404328
sg10
F13.145560237768525
sg11
F9.711963784977375
sg12
F0.0
sg13
F0.0
sg14
F0.0
sg15
F12.78288542815126
sg16
F0.0
sg17
F0.0
sg18
I00
sg19
F0.0
sg20
F0.0
sg21
F13.145560237768525
sg22
F0.0
ssS'SKILLING JEFFREY K'
p209
(dp210
g3
F13.921003264884451
sg4
F7.621684998724611
sg5
F0.0
sg6
F15.976844940918335
sg7
F14.467835744003965
sg8
F8.196161139282902
sg9
F15.538277155705378
sg10
F17.07720339078938
sg11
F10.286570709751162
sg12
F4.477336814478207
sg13
F16.773021618698067
sg14
F4.68213122712422
sg15
F10.0043278674622
sg16
F3.4011973816621555
sg17
F-4.794963757620747
sg18
I01
sg19
F0.0
sg20
F-0.20479441264601328
sg21
F15.738834987655824
sg22
F0.0
ssS'BLAKE JR. NORMAN P'
p211
(dp212
g3
F0.0
sg4
F0.0
sg5
F0.0
sg6
F7.153833801578843
sg7
F0.0
sg8
F0.0
sg9
F0.0
sg10
F0.0
sg11
F7.153833801578843
sg12
F0.0
sg13
F0.0
sg14
F0.0
sg15
F0.0
sg16
F0.0
sg17
F0.0
sg18
I00
sg19
F11.642057193250064
sg20
F0.0
sg21
F0.0
sg22
F11.642057193250064
ssS'SHERRICK JEFFREY B'
p213
(dp214
g3
F0.0
sg4
F6.368187186350492
sg5
F0.0
sg6
F0.0
sg7
F0.0
sg8
F6.418364935936212
sg9
F0.0
sg10
F14.421174250107526
sg11
F0.0
sg12
F3.6635616461296463
sg13
F14.170712717888868
sg14
F3.2188758248682006
sg15
F0.0
sg16
F2.8903717578961645
sg17
F-3.5279931780400466
sg18
I00
sg19
F0.0
sg20
F0.44468582126144574
sg21
F12.914105975526649
sg22
F0.0
ssS'PRENTICE JAMES'
p215
(dp216
g3
F0.0
sg4
F0.0
sg5
F13.24342636147743
sg6
F13.24342636147743
sg7
F0.0
sg8
F0.0
sg9
F0.0
sg10
F13.90630145024591
sg11
F0.0
sg12
F0.0
sg13
F13.694732917952683
sg14
F0.0
sg15
F0.0
sg16
F0.0
sg17
F0.0
sg18
I00
sg19
F0.0
sg20
F0.0
sg21
F12.24917523750997
sg22
F0.0
ssS'GRAY RODNEY'
p217
(dp218
g3
F8.797095076549056
sg4
F0.0
sg5
F11.446625393212996
sg6
F13.952362182513374
sg7
F12.809363496968258
sg8
F0.0
sg9
F0.0
sg10
F0.0
sg11
F0.0
sg12
F0.0
sg13
F0.0
sg14
F0.0
sg15
F13.431072327451982
sg16
F0.0
sg17
F0.0
sg18
I00
sg19
F0.0
sg20
F0.0
sg21
F0.0
sg22
F0.0
ssS'PICKERING MARK R'
p219
(dp220
g3
F13.39244700157159
sg4
F6.590301048196686
sg5
F0.0
sg6
F14.142430170350842
sg7
F0.0
sg8
F6.8001700683022
sg9
F12.611537753638338
sg10
F10.268061219268215
sg11
F10.362588209810202
sg12
F1.9459101490553132
sg13
F10.268061219268215
sg14
F4.204692619390966
sg15
F0.0
sg16
F0.0
sg17
F0.0
sg18
I00
sg19
F0.0
sg20
F-2.2587824703356527
sg21
F0.0
sg22
F0.0
ssS'NOLES JAMES L'
p221
(dp222
g3
F0.0
sg4
F0.0
sg5
F13.559845106265985
sg6
F13.559845106265985
sg7
F0.0
sg8
F0.0
sg9
F0.0
sg10
F12.81775214529112
sg11
F0.0
sg12
F0.0
sg13
F0.0
sg14
F0.0
sg15
F0.0
sg16
F0.0
sg17
F0.0
sg18
I00
sg19
F0.0
sg20
F0.0
sg21
F13.046045889143619
sg22
F0.0
ssS'KEAN STEVEN J'
p223
(dp224
g3
F12.91000644082379
sg4
F8.19946419761216
sg5
F0.0
sg6
F14.373709342424304
sg7
F12.611537753638338
sg8
F9.453600226875217
sg9
F13.815510557964274
sg10
F15.632554659626317
sg11
F10.644305223045162
sg12
F4.941642422609304
sg13
F14.519621417153195
sg14
F8.818630229100354
sg15
F7.115582126184454
sg16
F5.958424693029782
sg17
F-3.495175533845435
sg18
I00
sg19
F0.0
sg20
F-3.8769878064910497
sg21
F15.234173846891661
sg22
F0.0
ssS'FOWLER PEGGY'
p225
(dp226
g3
F0.0
sg4
F2.302585092994046
sg5
F0.0
sg6
F0.0
sg7
F0.0
sg8
F6.248042874508429
sg9
F0.0
sg10
F14.449304682924693
sg11
F0.0
sg12
F0.0
sg13
F14.09660447610753
sg14
F3.58351893845611
sg15
F0.0
sg16
F0.0
sg17
F0.0
sg18
I00
sg19
F0.0
sg20
F0.0
sg21
F13.23599558807142
sg22
F0.0
ssS'WASAFF GEORGE'
p227
(dp228
g3
F12.468421525263937
sg4
F5.820082930352362
sg5
F13.630744816583293
sg6
F13.849327272708072
sg7
F12.206072645530174
sg8
F5.991464547107982
sg9
F12.691580461311874
sg10
F14.536480568818588
sg11
F0.0
sg12
F3.091042453358316
sg13
F14.327291725053296
sg14
F3.4011973816621555
sg15
F7.261927092702751
sg16
F1.9459101490553132
sg17
F-4.045554398052668
sg18
I00
sg19
F13.27649977141526
sg20
F-0.3101549283038396
sg21
F12.86919093837571
sg22
F0.0
ssS'WHITE JR THOMAS E'
p229
(dp230
g3
F12.66836852121552
sg4
F0.0
sg5
F0.0
sg6
F14.475286563415397
sg7
F0.0
sg8
F0.0
sg9
F13.017002861746503
sg10
F16.533123093866838
sg11
F11.306552989656216
sg12
F0.0
sg13
F14.075602242076087
sg14
F0.0
sg15
F13.89751718204475
sg16
F0.0
sg17
F0.0
sg18
I00
sg19
F0.0
sg20
F0.0
sg21
F16.443584504740432
sg22
F0.0
ssS'CHRISTODOULOU DIOMEDES'
p231
(dp232
g3
F0.0
sg4
F0.0
sg5
F0.0
sg6
F0.0
sg7
F0.0
sg8
F0.0
sg9
F0.0
sg10
F15.620167331582278
sg11
F0.0
sg12
F0.0
sg13
F15.450061482413401
sg14
F0.0
sg15
F0.0
sg16
F0.0
sg17
F0.0
sg18
I00
sg19
F0.0
sg20
F0.0
sg21
F13.764985389545055
sg22
F0.0
ssS'ALLEN PHILLIP K'
p233
(dp234
g3
F12.215800179288685
sg4
F7.249215057114389
sg5
F14.869723976602108
sg6
F15.316124631019163
sg7
F12.627427506859556
sg8
F7.973155433444133
sg9
F15.244624916267092
sg10
F14.363366613351861
sg11
F9.537339306804913
sg12
F3.8501476017100584
sg13
F14.363366613351861
sg14
F7.693937325509272
sg15
F5.0238805208462765
sg16
F4.174387269895637
sg17
F-3.798768163548496
sg18
I00
sg19
F14.940782628766437
sg20
F-3.843789723799213
sg21
F11.744251448691996
sg22
F0.0
ssS'SHARP VICTORIA T'
p235
(dp236
g3
F12.421772561602978
sg4
F7.814803429489359
sg5
F12.141368777390207
sg6
F14.270724735424674
sg7
F12.953134930528059
sg8
F8.0507033814703
sg9
F13.304684934198283
sg10
F13.11056606192469
sg11
F11.664246430644395
sg12
F3.1780538303479458
sg13
F12.546369701054088
sg14
F4.912654885736052
sg15
F7.783640596221253
sg16
F1.791759469228055
sg17
F-6.258943912242244
sg18
I00
sg19
F0.0
sg20
F-1.7346010553881064
sg21
F12.269343175606751
sg22
F0.0
ssS'JAEDICKE ROBERT'
p237
(dp238
g3
F0.0
sg4
F0.0
sg5
F0.0
sg6
F11.335591449687312
sg7
F0.0
sg8
F0.0
sg9
F0.0
sg10
F12.975601996008924
sg11
F0.0
sg12
F0.0
sg13
F12.975601996008924
sg14
F0.0
sg15
F0.0
sg16
F0.0
sg17
F0.0
sg18
I00
sg19
F10.126631103850338
sg20
F0.0
sg21
F10.694056318677243
sg22
F11.596806948950931
ssS'WINOKUR JR. HERBERT S'
p239
(dp240
g3
F0.0
sg4
F0.0
sg5
F0.0
sg6
F11.35031241339605
sg7
F0.0
sg8
F0.0
sg9
F0.0
sg10
F0.0
sg11
F7.253470382684528
sg12
F0.0
sg13
F0.0
sg14
F0.0
sg15
F0.0
sg16
F0.0
sg17
F0.0
sg18
I00
sg19
F10.126631103850338
sg20
F0.0
sg21
F0.0
sg22
F11.595233297617805
ssS'BROWN MICHAEL'
p241
(dp242
g3
F0.0
sg4
F6.634633357861686
sg5
F0.0
sg6
F10.805435922694407
sg7
F0.0
sg8
F7.303843225277705
sg9
F0.0
sg10
F0.0
sg11
F10.805435922694407
sg12
F2.5649493574615367
sg13
F0.0
sg14
F3.713572066704308
sg15
F0.0
sg16
F0.0
sg17
F-7.303843225277705
sg18
I00
sg19
F0.0
sg20
F-1.148622709242771
sg21
F0.0
sg22
F0.0
ssS'BADUM JAMES P'
p243
(dp244
g3
F0.0
sg4
F0.0
sg5
F12.09502934673685
sg6
F12.114319133278565
sg7
F0.0
sg8
F0.0
sg9
F0.0
sg10
F12.460005309904263
sg11
F8.156510226079966
sg12
F0.0
sg13
F12.460005309904263
sg14
F0.0
sg15
F0.0
sg16
F0.0
sg17
F0.0
sg18
I00
sg19
F0.0
sg20
F0.0
sg21
F0.0
sg22
F0.0
ssS'HUGHES JAMES A'
p245
(dp246
g3
F0.0
sg4
F6.3784261836515865
sg5
F0.0
sg6
F0.0
sg7
F0.0
sg8
F6.577861357721047
sg9
F0.0
sg10
F13.927404285640426
sg11
F0.0
sg12
F3.5553480614894135
sg13
F13.534427994104558
sg14
F3.5263605246161616
sg15
F0.0
sg16
F1.6094379124341003
sg17
F-4.9684234452869465
sg18
I00
sg19
F0.0
sg20
F0.028987536873252187
sg21
F12.803336482058556
sg22
F0.0
ssS'REYNOLDS LAWRENCE'
p247
(dp248
g3
F11.243724886063715
sg4
F0.0
sg5
F10.846712285650364
sg6
F12.885311045903869
sg7
F11.959212567598648
sg8
F0.0
sg9
F11.512925464970229
sg10
F15.255793689908863
sg11
F9.037057839832897
sg12
F0.0
sg13
F15.241187157653052
sg14
F0.0
sg15
F12.216280368997595
sg16
F0.0
sg17
F0.0
sg18
I00
sg19
F12.206072645530174
sg20
F0.0
sg21
F12.2134602895641
sg22
F0.0
ssS'DIMICHELE RICHARD G'
p249
(dp250
g3
F12.47910290244959
sg4
F0.0
sg5
F0.0
sg6
F14.677620039844903
sg7
F13.451468543679974
sg8
F0.0
sg9
F13.815510557964274
sg10
F15.933906190718423
sg11
F10.486038311754047
sg12
F0.0
sg13
F15.918638718587633
sg14
F0.0
sg15
F12.83385162753207
sg16
F0.0
sg17
F0.0
sg18
I00
sg19
F0.0
sg20
F0.0
sg21
F11.744251448691996
sg22
F0.0
ssS'BHATNAGAR SANJAY'
p251
(dp252
g3
F0.0
sg4
F6.137727054086234
sg5
F0.0
sg6
F16.553526598198374
sg7
F0.0
sg8
F6.259581464064923
sg9
F0.0
sg10
F0.0
sg11
F0.0
sg12
F0.0
sg13
F14.77274743665147
sg14
F3.367295829986474
sg15
F11.834022970961414
sg16
F0.0
sg17
F-6.259581464064923
sg18
I00
sg19
F0.0
sg20
F0.0
sg21
F14.77274743665147
sg22
F11.834022970961414
ssS'CARTER REBECCA C'
p253
(dp254
g3
F12.475370509254367
sg4
F5.278114659230517
sg5
F0.0
sg6
F13.076438803506433
sg7
F11.225243392518447
sg8
F5.7430031878094825
sg9
F12.611537753638338
sg10
F0.0
sg11
F0.0
sg12
F3.367295829986474
sg13
F0.0
sg14
F2.70805020110221
sg15
F6.29156913955832
sg16
F1.9459101490553132
sg17
F-3.797093038754169
sg18
I00
sg19
F11.981628248482917
sg20
F0.659245628884264
sg21
F12.63558300226232
sg22
F0.0
ssS'BUCHANAN HAROLD G'
p255
(dp256
g3
F12.421252571184883
sg4
F3.1354942159291497
sg5
F0.0
sg6
F13.86870718985525
sg7
F12.627427506859556
sg8
F6.992096427415888
sg9
F13.122363377404328
sg10
F13.829911366772086
sg11
F6.396929655216146
sg12
F0.0
sg13
F13.623700931458005
sg14
F4.8283137373023015
sg15
F7.102499355774649
sg16
F0.0
sg17
F0.0
sg18
I00
sg19
F0.0
sg20
F0.0
sg21
F12.149719201732536
sg22
F0.0
ssS'YEAP SOON'
p257
(dp258
g3
F0.0
sg4
F0.0
sg5
F0.0
sg6
F10.916850547197763
sg7
F0.0
sg8
F0.0
sg9
F0.0
sg10
F12.169190795103844
sg11
F10.916850547197763
sg12
F0.0
sg13
F12.169190795103844
sg14
F0.0
sg15
F0.0
sg16
F0.0
sg17
F0.0
sg18
I00
sg19
F0.0
sg20
F0.0
sg21
F0.0
sg22
F0.0
ssS'MURRAY JULIA H'
p259
(dp260
g3
F12.342716688827476
sg4
F5.978885764901122
sg5
F0.0
sg6
F13.607494506864029
sg7
F11.736069016284437
sg8
F7.692569648067906
sg9
F12.89921982609012
sg10
F13.300444288690969
sg11
F10.960930564166167
sg12
F2.3978952727983707
sg13
F12.90041411264594
sg14
F3.8066624897703196
sg15
F5.799092654460526
sg16
F0.6931471805599453
sg17
F-6.999422467507961
sg18
I00
sg19
F0.0
sg20
F-1.4087672169719492
sg21
F12.190872709580304
sg22
F0.0
ssS'GARLAND C KEVIN'
p261
(dp262
g3
F12.354259864935266
sg4
F5.181783550292085
sg5
F0.0
sg6
F14.26433459983928
sg7
F12.835491643206469
sg8
F5.342334251964811
sg9
F13.652991628466498
sg10
F13.705866436307993
sg11
F10.787358393154172
sg12
F2.302585092994046
sg13
F13.363340559990172
sg14
F3.784189633918261
sg15
F11.015575304605662
sg16
F3.295836866004329
sg17
F-2.046497385960482
sg18
I00
sg19
F0.0
sg20
F-1.4816045409242156
sg21
F12.46807915370282
sg22
F0.0
ssS'DODSON KEITH'
p263
(dp264
g3
F12.305931555068389
sg4
F4.736198448394496
sg5
F0.0
sg6
F12.67589188277675
sg7
F0.0
sg8
F5.170483995038151
sg9
F11.156250521031495
sg10
F0.0
sg11
F10.245799845639024
sg12
F2.302585092994046
sg13
F0.0
sg14
F2.6390573296152584
sg15
F6.651571873589727
sg16
F1.0986122886681098
sg17
F-4.071871706370042
sg18
I00
sg19
F0.0
sg20
F-0.3364722366212129
sg21
F0.0
sg22
F0.0
ssS'YEAGER F SCOTT'
p265
(dp266
g3
F11.972897697577054
sg4
F0.0
sg5
F0.0
sg6
F12.794692296736185
sg7
F0.0
sg8
F0.0
sg9
F0.0
sg10
F16.29076729676854
sg11
F10.895757362096592
sg12
F0.0
sg13
F15.932795903754599
sg14
F0.0
sg15
F11.904629657828355
sg16
F0.0
sg17
F0.0
sg18
I01
sg19
F0.0
sg20
F0.0
sg21
F15.089813019880348
sg22
F0.0
ssS'HIRKO JOSEPH'
p267
(dp268
g3
F0.0
sg4
F0.0
sg5
F9.235910648087712
sg6
F11.419636241656951
sg7
F0.0
sg8
F0.0
sg9
F0.0
sg10
F17.24192282231409
sg11
F11.264182014605733
sg12
F0.0
sg13
F17.24192282231409
sg14
F0.0
sg15
F7.957177323459475
sg16
F0.0
sg17
F0.0
sg18
I01
sg19
F0.0
sg20
F0.0
sg21
F0.0
sg22
F0.0
ssS'DIETRICH JANET R'
p269
(dp270
g3
F12.429616116865711
sg4
F7.550661243105336
sg5
F0.0
sg6
F14.159429286234241
sg7
F13.22927149490841
sg8
F7.85243908535751
sg9
F13.304684934198283
sg10
F14.438818258765597
sg11
F8.153349757998892
sg12
F5.720311776607412
sg13
F14.253777746884817
sg14
F4.143134726391533
sg15
F6.159095388491933
sg16
F2.6390573296152584
sg17
F-5.213381755742251
sg18
I00
sg19
F0.0
sg20
F1.5771770502158788
sg21
F12.660543767526416
sg22
F0.0
ssS'DERRICK JR. JAMES V'
p271
(dp272
g3
F13.106995900273207
sg4
F7.244941546337007
sg5
F0.0
sg6
F13.219455604781887
sg7
F13.089840185698769
sg8
F7.687538766201629
sg9
F13.592367006650065
sg10
F15.993882196907018
sg11
F10.842009333251605
sg12
F4.1588830833596715
sg13
F15.993882196907018
sg14
F6.812345094177479
sg15
F8.920255414908091
sg16
F2.995732273553991
sg17
F-4.691806492647638
sg18
I00
sg19
F14.065490763232043
sg20
F-2.653462010817807
sg21
F14.396261418429654
sg22
F0.0
ssS'FREVERT MARK A'
p273
(dp274
g3
F13.874658325061558
sg4
F7.999342952713282
sg5
F15.676016868416317
sg6
F16.663469357353804
sg7
F14.296089941257193
sg8
F8.094073148069352
sg9
F14.508657738524219
sg10
F16.498050453923327
sg11
F11.373513961184294
sg12
F5.488937726156687
sg13
F16.160534066366147
sg14
F3.044522437723423
sg15
F15.820716176997381
sg16
F1.791759469228055
sg17
F-6.302313678841298
sg18
I00
sg19
F15.029535965141141
sg20
F2.4444152884332633
sg21
F15.247893102856736
sg22
F0.0
ssS'PAI LOU L'
p275
(dp276
g3
F12.475637844004893
sg4
F0.0
sg5
F0.0
sg6
F14.954427267234363
sg7
F0.0
sg8
F0.0
sg9
F13.815510557964274
sg10
F16.985949216352026
sg11
F10.374958854223562
sg12
F0.0
sg13
F16.547548537954075
sg14
F0.0
sg15
F14.41952975947565
sg16
F0.0
sg17
F0.0
sg18
I00
sg19
F0.0
sg20
F0.0
sg21
F15.950122225649196
sg22
F0.0
ssS'BAY FRANKLIN R'
p277
(dp278
g3
F12.387022428539215
sg4
F0.0
sg5
F12.470185380531781
sg6
F13.626401216192969
sg7
F0.0
sg8
F0.0
sg9
F12.89921982609012
sg10
F11.051112202908191
sg11
F11.768667853128832
sg12
F0.0
sg13
F0.0
sg14
F0.0
sg15
F4.23410650459726
sg16
F0.0
sg17
F0.0
sg18
I00
sg19
F12.214244167517736
sg20
F0.0
sg21
F11.889963663338103
sg22
F0.0
ssS'HAYSLETT RODERICK J'
p279
(dp280
g3
F0.0
sg4
F6.3473892096560105
sg5
F0.0
sg6
F0.0
sg7
F0.0
sg8
F7.88193748927207
sg9
F0.0
sg10
F12.756108405470433
sg11
F0.0
sg12
F3.5553480614894135
sg13
F0.0
sg14
F6.966967138613983
sg15
F0.0
sg16
F3.6375861597263857
sg17
F-4.244351329545684
sg18
I00
sg19
F0.0
sg20
F-3.4116190771245694
sg21
F12.756108405470433
sg22
F0.0
ssS'FUGH JOHN L'
p281
(dp282
g3
F0.0
sg4
F0.0
sg5
F10.831528973842945
sg6
F10.831528973842945
sg7
F0.0
sg8
F0.0
sg9
F0.0
sg10
F12.080384698223783
sg11
F0.0
sg12
F0.0
sg13
F12.080384698223783
sg14
F0.0
sg15
F0.0
sg16
F0.0
sg17
F0.0
sg18
I00
sg19
F0.0
sg20
F0.0
sg21
F0.0
sg22
F0.0
ssS'FALLON JAMES B'
p283
(dp284
g3
F12.626715322738072
sg4
F7.38025578842646
sg5
F0.0
sg6
F15.117428250019564
sg7
F12.832938453735975
sg8
F7.470224135899966
sg9
F14.73180128983843
sg10
F14.66240790958712
sg11
F11.471311490249764
sg12
F3.7376696182833684
sg13
F13.753908521133374
sg14
F4.31748811353631
sg15
F12.902915488708734
sg16
F3.6109179126442243
sg17
F-3.8593062232557416
sg18
I00
sg19
F0.0
sg20
F-0.579818495252942
sg21
F14.146354126167937
sg22
F0.0
ssS'KOENIG MARK E'
p285
(dp286
g3
F12.644153367739484
sg4
F7.7279755421055585
sg5
F0.0
sg6
F14.277621244731199
sg7
F12.611537753638338
sg8
F7.772331575169614
sg9
F13.458835614025542
sg10
F14.467864389427014
sg11
F11.752076214750227
sg12
F3.970291913552122
sg13
F13.417622173852815
sg14
F4.110873864173311
sg15
F11.921439254456413
sg16
F2.70805020110221
sg17
F-5.064281374067403
sg18
I01
sg19
F0.0
sg20
F-0.14058195062118944
sg21
F14.037307603145852
sg22
F0.0
ssS'SAVAGE FRANK'
p287
(dp288
g3
F0.0
sg4
F0.0
sg5
F0.0
sg6
F8.229511118964457
sg7
F0.0
sg8
F0.0
sg9
F0.0
sg10
F0.0
sg11
F0.0
sg12
F0.0
sg13
F0.0
sg14
F0.0
sg15
F0.0
sg16
F0.0
sg17
F0.0
sg18
I00
sg19
F11.705890181862664
sg20
F0.0
sg21
F0.0
sg22
F11.736340979299145
ssS'IZZO LAWRENCE L'
p289
(dp290
g3
F11.353624880451743
sg4
F6.07993319509559
sg5
F0.0
sg6
F14.498403341447602
sg7
F12.652359748158593
sg8
F6.206575926724928
sg9
F0.0
sg10
F15.576807383275598
sg11
F10.243275713968423
sg12
F3.332204510175204
sg13
F14.588010361990566
sg14
F2.9444389791664403
sg15
F14.256168406027868
sg16
F1.6094379124341003
sg17
F-4.597138014290827
sg18
I00
sg19
F0.0
sg20
F0.38776553100876343
sg21
F15.111554119006472
sg22
F0.0
ssS'TILNEY ELIZABETH A'
p291
(dp292
g3
F12.418511101227939
sg4
F5.937536205082426
sg5
F0.0
sg6
F12.897701173520831
sg7
F12.524526376648708
sg8
F6.131226489483141
sg9
F12.611537753638338
sg10
F13.970839400627913
sg11
F0.0
sg12
F2.302585092994046
sg13
F13.28999421878828
sg14
F2.9444389791664403
sg15
F11.93199757648461
sg16
F2.3978952727983707
sg17
F-3.7333312166847703
sg18
I00
sg19
F13.262125319779487
sg20
F-0.6418538861723948
sg21
F13.265236995231172
sg22
F0.0
ssS'MARTIN AMANDA K'
p293
(dp294
g3
F12.764221643969936
sg4
F6.1675164908883415
sg5
F11.355452606145665
sg6
F15.944577153291547
sg7
F15.453620277434206
sg8
F7.3277805384216315
sg9
F0.0
sg10
F14.543206980403308
sg11
F9.01322999770879
sg12
F2.0794415416798357
sg13
F14.543206980403308
sg14
F5.438079308923196
sg15
F14.851699065632602
sg16
F0.0
sg17
F0.0
sg18
I00
sg19
F0.0
sg20
F-3.3586377672433594
sg21
F0.0
sg22
F0.0
ssS'BUY RICHARD B'
p295
(dp296
g3
F12.708501111644791
sg4
F7.75491027202143
sg5
F13.384087436984396
sg6
F14.672349330184879
sg7
F13.553966556988684
sg8
F8.167068178341237
sg9
F13.710150042306449
sg10
F15.052280604440517
sg11
F0.0
sg12
F5.049856007249537
sg13
F14.74878150650576
sg14
F6.959398512133975
sg15
F12.90064880461381
sg16
F4.2626798770413155
sg17
F-3.9043883012999223
sg18
I00
sg19
F13.451468543679974
sg20
F-1.9095425048844386
sg21
F13.711989460649894
sg22
F0.0
ssS'GRAMM WENDY L'
p297
(dp298
g3
F0.0
sg4
F0.0
sg5
F0.0
sg6
F11.689329548000146
sg7
F0.0
sg8
F0.0
sg9
F0.0
sg10
F0.0
sg11
F0.0
sg12
F0.0
sg13
F0.0
sg14
F0.0
sg15
F0.0
sg16
F0.0
sg17
F0.0
sg18
I00
sg19
F0.0
sg20
F0.0
sg21
F0.0
sg22
F11.689329548000146
ssS'CAUSEY RICHARD A'
p299
(dp300
g3
F12.936489117226602
sg4
F7.368339686311381
sg5
F0.0
sg6
F14.440784597048426
sg7
F12.765688433465597
sg8
F7.545389749611823
sg9
F13.815510557964274
sg10
F14.732626149548102
sg11
F10.331170669210724
sg12
F4.060443010546419
sg13
F0.0
sg14
F3.8918202981106265
sg15
F12.637514094742087
sg16
F2.4849066497880004
sg17
F-5.0604830998238235
sg18
I01
sg19
F12.367340793126296
sg20
F0.16862271243579272
sg21
F14.732626149548102
sg22
F0.0
ssS'TAYLOR MITCHELL S'
p301
(dp302
g3
F12.488292326247391
sg4
F5.703782474656201
sg5
F12.33468131641781
sg6
F13.904128393907474
sg7
F0.0
sg8
F6.278521424165844
sg9
F13.304684934198283
sg10
F15.135944991940772
sg11
F0.0
sg12
F0.0
sg13
F14.97278475928097
sg14
F3.367295829986474
sg15
F0.0
sg16
F0.0
sg17
F0.0
sg18
I00
sg19
F0.0
sg20
F0.0
sg21
F13.24245131029864
sg22
F0.0
ssS'DONAHUE JR JEFFREY M'
p303
(dp304
g3
F12.53753592969685
sg4
F6.648984550024776
sg5
F0.0
sg6
F13.682847359778439
sg7
F0.0
sg8
F6.762729506931879
sg9
F13.592367006650065
sg10
F13.893385995727169
sg11
F11.474891247652295
sg12
F5.236441962829949
sg13
F13.548833004626337
sg14
F3.091042453358316
sg15
F6.792344427470809
sg16
F2.3978952727983707
sg17
F-4.364834234133509
sg18
I00
sg19
F12.611537753638338
sg20
F2.145399509471633
sg21
F12.660543767526416
sg22
F0.0
ssS'GLISAN JR BEN F'
p305
(dp306
g3
F12.524435463425318
sg4
F6.773080375655535
sg5
F0.0
sg6
F14.05632426840132
sg7
F11.170759047227005
sg8
F6.771935555839602
sg9
F13.304684934198283
sg10
F13.565183356500288
sg11
F11.743862567514103
sg12
F3.9512437185814275
sg13
F12.860291870079283
sg14
F2.772588722239781
sg15
F12.207611460946191
sg16
F1.791759469228055
sg17
F-4.980176086611547
sg18
I01
sg19
F0.0
sg20
F1.1786549963416462
sg21
F12.883644152624024
sg22
F0.0
ss.